; Function Attrs: mustprogress nofree nounwind willreturn memory(readwrite, argmem: none) uwtable
define hidden noundef ptr @hb_font_funcs_create() local_unnamed_addr #4 {
  %1 = tail call noalias dereferenceable_or_null(184) ptr @calloc(i64 noundef 1, i64 noundef 184) #23
  %.not.i = icmp eq ptr %1, null
  br i1 %.not.i, label %7, label %2

2:                                                ; preds = %0
  store atomic i32 1, ptr %1 monotonic, align 4
  %3 = getelementptr inbounds i8, ptr %1, i64 4
  store atomic i32 1, ptr %3 monotonic, align 4
  %4 = getelementptr inbounds i8, ptr %1, i64 8
  store atomic i64 0, ptr %4 monotonic, align 8
  %5 = load atomic i32, ptr %1 monotonic, align 4
  %6 = getelementptr inbounds i8, ptr %1, i64 32
  tail call void @llvm.memcpy.p0.p0.i64(ptr noundef nonnull align 8 dereferenceable(152) %6, ptr noundef nonnull align 8 dereferenceable(152) getelementptr inbounds (i8, ptr @_ZL22_hb_font_funcs_default, i64 32), i64 152, i1 false)
  br label %7

7:                                                ; preds = %0, %2
  %.0 = phi ptr [ %1, %2 ], [ @_ZL22_hb_font_funcs_default, %0 ]
  ret ptr %.0
}